; Function Attrs: nounwind uwtable
define hidden void @boost_cont_sync_destroy(ptr noundef %0) local_unnamed_addr #0 {
  %.not = icmp eq ptr %0, null
  br i1 %.not, label %boost_cont_free.exit, label %2

2:                                                ; preds = %1
  %3 = load i32, ptr getelementptr inbounds nuw (i8, ptr @_gm_, i64 880), align 8, !tbaa !9
  %4 = and i32 %3, 2
  %.not.i = icmp eq i32 %4, 0
  br i1 %.not.i, label %.split.i, label %5

5:                                                ; preds = %2
  %6 = atomicrmw xchg ptr getelementptr inbounds nuw (i8, ptr @_gm_, i64 884), i32 1 seq_cst, align 4
  %.not11.i = icmp eq i32 %6, 0
  br i1 %.not11.i, label %.split.i, label %.preheader.i

.preheader.i:                                     ; preds = %5, %.preheader.i.backedge
  %.0.i.i = phi i32 [ %10, %.preheader.i.backedge ], [ 0, %5 ]
  %7 = load volatile i32, ptr getelementptr inbounds nuw (i8, ptr @_gm_, i64 884), align 4, !tbaa !13
  %.not.i.i = icmp eq i32 %7, 0
  br i1 %.not.i.i, label %8, label %.critedge.i.i

8:                                                ; preds = %.preheader.i
  %9 = atomicrmw xchg ptr getelementptr inbounds nuw (i8, ptr @_gm_, i64 884), i32 1 seq_cst, align 4
  %.not2.i.i = icmp eq i32 %9, 0
  br i1 %.not2.i.i, label %.split.i, label %.critedge.i.i

.critedge.i.i:                                    ; preds = %8, %.preheader.i
  %10 = add nuw nsw i32 %.0.i.i, 1
  %11 = and i32 %10, 63
  %12 = icmp eq i32 %11, 0
  br i1 %12, label %13, label %.preheader.i.backedge

13:                                               ; preds = %.critedge.i.i
  %14 = tail call i32 @sched_yield() #17
  br label %.preheader.i.backedge

.preheader.i.backedge:                            ; preds = %13, %.critedge.i.i
  br label %.preheader.i, !llvm.loop !14

.split.i:                                         ; preds = %8, %5, %2
  %15 = getelementptr inbounds i8, ptr %0, i64 -8
  %16 = load i64, ptr %15, align 8, !tbaa !23
  %17 = and i64 %16, -8
  %18 = load i64, ptr @s_allocated_memory, align 8, !tbaa !36
  %19 = sub i64 %18, %17
  store i64 %19, ptr @s_allocated_memory, align 8, !tbaa !36
  tail call fastcc void @mspace_free_lockless(ptr noundef nonnull %0)
  %20 = load i32, ptr getelementptr inbounds nuw (i8, ptr @_gm_, i64 880), align 8, !tbaa !9
  %21 = and i32 %20, 2
  %.not13.i = icmp eq i32 %21, 0
  br i1 %.not13.i, label %boost_cont_free.exit, label %22

22:                                               ; preds = %.split.i
  store atomic i32 0, ptr getelementptr inbounds nuw (i8, ptr @_gm_, i64 884) release, align 4
  br label %boost_cont_free.exit

boost_cont_free.exit:                             ; preds = %22, %.split.i, %1
  ret void
}